target datalayout = "e-m:e-p270:32:32-p271:32:32-p272:64:64-i64:64-i128:128-f80:128-n8:16:32:64-S128"
target triple = "x86_64-pc-linux-gnu"

%struct._MAD = type { i8, i8, i8, i8, i16, i8, i8, i64, i16, i16, i32 }

@hf_opa_SCtoVLxMappingTable = internal global i32 0, align 4
@hf_opa_SCtoVLxMappingTable_SCtoVLx_HighBits = internal global i32 0, align 4
@hf_opa_SCtoVLxMappingTable_SCtoVLx_LowBits = internal global i32 0, align 4
@ett_sctovlxmappingtable = internal global i32 0, align 4
@ett_sctovlxmappingtable_block = internal global i32 0, align 4
@.str.2329 = private unnamed_addr constant [6 x i8] c"%3u: \00", align 1
@.str.2331 = private unnamed_addr constant [6 x i8] c"     \00", align 1
@.str.2350 = private unnamed_addr constant [2 x i8] c"x\00", align 1
@.str.2351 = private unnamed_addr constant [25 x i8] c"SC to VL%s Mapping Table\00", align 1
@.str.2352 = private unnamed_addr constant [37 x i8] c"SC to VL%s Mapping Table for Port %u\00", align 1

; Function Attrs: null_pointer_is_valid sspstrong uwtable
define internal i32 @parse_SCtoVLxMappingTable(ptr noundef %0, ptr noundef %1, ptr noundef %2, ptr noundef %3) #0 {
  %5 = alloca i32, align 4
  %6 = alloca ptr, align 8
  %7 = alloca ptr, align 8
  %8 = alloca ptr, align 8
  %9 = alloca ptr, align 8
  %10 = alloca i32, align 4
  %11 = alloca ptr, align 8
  %12 = alloca ptr, align 8
  %13 = alloca ptr, align 8
  %14 = alloca ptr, align 8
  %15 = alloca ptr, align 8
  %16 = alloca i32, align 4
  %17 = alloca i32, align 4
  %18 = alloca i32, align 4
  %19 = alloca i32, align 4
  %20 = alloca ptr, align 8
  %21 = alloca i32, align 4
  store ptr %0, ptr %6, align 8
  store ptr %1, ptr %7, align 8
  store ptr %2, ptr %8, align 8
  store ptr %3, ptr %9, align 8
  call void @llvm.lifetime.start.p0(i64 4, ptr %10) #7
  %22 = load ptr, ptr %8, align 8
  %23 = load i32, ptr %22, align 4
  store i32 %23, ptr %10, align 4
  call void @llvm.lifetime.start.p0(i64 8, ptr %11) #7
  call void @llvm.lifetime.start.p0(i64 8, ptr %12) #7
  call void @llvm.lifetime.start.p0(i64 8, ptr %13) #7
  call void @llvm.lifetime.start.p0(i64 8, ptr %14) #7
  call void @llvm.lifetime.start.p0(i64 8, ptr %15) #7
  call void @llvm.lifetime.start.p0(i64 4, ptr %16) #7
  call void @llvm.lifetime.start.p0(i64 4, ptr %17) #7
  call void @llvm.lifetime.start.p0(i64 4, ptr %18) #7
  call void @llvm.lifetime.start.p0(i64 4, ptr %19) #7
  call void @llvm.lifetime.start.p0(i64 8, ptr %20) #7
  %24 = load ptr, ptr %6, align 8
  %25 = icmp ne ptr %24, null
  br i1 %25, label %26, label %38

26:                                               ; preds = %4
  %27 = load ptr, ptr %9, align 8
  %28 = getelementptr inbounds nuw %struct._MAD, ptr %27, i32 0, i32 3
  %29 = load i8, ptr %28, align 1
  %30 = zext i8 %29 to i32
  %31 = icmp eq i32 %30, 1
  br i1 %31, label %38, label %32

32:                                               ; preds = %26
  %33 = load ptr, ptr %9, align 8
  %34 = getelementptr inbounds nuw %struct._MAD, ptr %33, i32 0, i32 3
  %35 = load i8, ptr %34, align 1
  %36 = zext i8 %35 to i32
  %37 = icmp eq i32 %36, 18
  br i1 %37, label %38, label %41

38:                                               ; preds = %32, %26, %4
  %39 = load ptr, ptr %8, align 8
  %40 = load i32, ptr %39, align 4
  store i32 %40, ptr %5, align 4
  store i32 1, ptr %21, align 4
  br label %129

41:                                               ; preds = %32
  %42 = load ptr, ptr %9, align 8
  %43 = getelementptr inbounds nuw %struct._MAD, ptr %42, i32 0, i32 1
  %44 = load i8, ptr %43, align 1
  %45 = zext i8 %44 to i32
  %46 = icmp eq i32 %45, 3
  br i1 %46, label %47, label %58

47:                                               ; preds = %41
  store i32 1, ptr %19, align 4
  %48 = load ptr, ptr %7, align 8
  %49 = load i32, ptr %10, align 4
  %50 = sub i32 %49, 4
  %51 = call zeroext i8 @tvb_get_uint8(ptr noundef %48, i32 noundef %50)
  %52 = zext i8 %51 to i32
  store i32 %52, ptr %18, align 4
  %53 = load ptr, ptr %9, align 8
  %54 = getelementptr inbounds nuw %struct._MAD, ptr %53, i32 0, i32 8
  %55 = load i16, ptr %54, align 8
  %56 = zext i16 %55 to i32
  %57 = call ptr @val_to_str_const(i32 noundef %56, ptr noundef @SA_SC_VLx, ptr noundef @.str.2350)
  store ptr %57, ptr %20, align 8
  br label %73

58:                                               ; preds = %41
  %59 = load ptr, ptr %9, align 8
  %60 = getelementptr inbounds nuw %struct._MAD, ptr %59, i32 0, i32 10
  %61 = load i32, ptr %60, align 4
  %62 = and i32 %61, -16777216
  %63 = lshr i32 %62, 24
  store i32 %63, ptr %19, align 4
  %64 = load ptr, ptr %9, align 8
  %65 = getelementptr inbounds nuw %struct._MAD, ptr %64, i32 0, i32 10
  %66 = load i32, ptr %65, align 4
  %67 = and i32 %66, 255
  store i32 %67, ptr %18, align 4
  %68 = load ptr, ptr %9, align 8
  %69 = getelementptr inbounds nuw %struct._MAD, ptr %68, i32 0, i32 8
  %70 = load i16, ptr %69, align 8
  %71 = zext i16 %70 to i32
  %72 = call ptr @val_to_str_const(i32 noundef %71, ptr noundef @SM_SC_VLx, ptr noundef @.str.2350)
  store ptr %72, ptr %20, align 8
  br label %73

73:                                               ; preds = %58, %47
  %74 = load ptr, ptr %6, align 8
  %75 = load i32, ptr @hf_opa_SCtoVLxMappingTable, align 4
  %76 = load ptr, ptr %7, align 8
  %77 = load i32, ptr %10, align 4
  %78 = load i32, ptr %19, align 4
  %79 = mul i32 32, %78
  %80 = call ptr @proto_tree_add_item(ptr noundef %74, i32 noundef %75, ptr noundef %76, i32 noundef %77, i32 noundef %79, i32 noundef 0)
  store ptr %80, ptr %11, align 8
  %81 = load ptr, ptr %11, align 8
  %82 = load ptr, ptr %20, align 8
  call void (ptr, ptr, ...) @proto_item_set_text(ptr noundef %81, ptr noundef @.str.2351, ptr noundef %82)
  %83 = load ptr, ptr %11, align 8
  %84 = load i32, ptr @ett_sctovlxmappingtable, align 4
  %85 = call ptr @proto_item_add_subtree(ptr noundef %83, i32 noundef %84)
  store ptr %85, ptr %12, align 8
  %86 = load i32, ptr %18, align 4
  store i32 %86, ptr %16, align 4
  br label %87

87:                                               ; preds = %124, %73
  %88 = load i32, ptr %16, align 4
  %89 = load i32, ptr %18, align 4
  %90 = load i32, ptr %19, align 4
  %91 = add i32 %89, %90
  %92 = icmp ult i32 %88, %91
  br i1 %92, label %93, label %127

93:                                               ; preds = %87
  %94 = load ptr, ptr %12, align 8
  %95 = load ptr, ptr %7, align 8
  %96 = load i32, ptr %10, align 4
  %97 = load i32, ptr @ett_sctovlxmappingtable_block, align 4
  %98 = load ptr, ptr %20, align 8
  %99 = load i32, ptr %16, align 4
  %100 = call ptr (ptr, ptr, i32, i32, i32, ptr, ptr, ...) @proto_tree_add_subtree_format(ptr noundef %94, ptr noundef %95, i32 noundef %96, i32 noundef 32, i32 noundef %97, ptr noundef null, ptr noundef @.str.2352, ptr noundef %98, i32 noundef %99)
  store ptr %100, ptr %15, align 8
  store i32 0, ptr %17, align 4
  br label %101

101:                                              ; preds = %120, %93
  %102 = load i32, ptr %17, align 4
  %103 = icmp ult i32 %102, 32
  br i1 %103, label %104, label %123

104:                                              ; preds = %101
  %105 = load ptr, ptr %15, align 8
  %106 = load i32, ptr @hf_opa_SCtoVLxMappingTable_SCtoVLx_HighBits, align 4
  %107 = load ptr, ptr %7, align 8
  %108 = load i32, ptr %10, align 4
  %109 = call ptr @proto_tree_add_item(ptr noundef %105, i32 noundef %106, ptr noundef %107, i32 noundef %108, i32 noundef 1, i32 noundef 0)
  store ptr %109, ptr %14, align 8
  %110 = load ptr, ptr %14, align 8
  %111 = load i32, ptr %17, align 4
  call void (ptr, ptr, ...) @proto_item_prepend_text(ptr noundef %110, ptr noundef @.str.2329, i32 noundef %111)
  %112 = load ptr, ptr %15, align 8
  %113 = load i32, ptr @hf_opa_SCtoVLxMappingTable_SCtoVLx_LowBits, align 4
  %114 = load ptr, ptr %7, align 8
  %115 = load i32, ptr %10, align 4
  %116 = call ptr @proto_tree_add_item(ptr noundef %112, i32 noundef %113, ptr noundef %114, i32 noundef %115, i32 noundef 1, i32 noundef 0)
  store ptr %116, ptr %13, align 8
  %117 = load ptr, ptr %13, align 8
  call void (ptr, ptr, ...) @proto_item_prepend_text(ptr noundef %117, ptr noundef @.str.2331)
  %118 = load i32, ptr %10, align 4
  %119 = add i32 %118, 1
  store i32 %119, ptr %10, align 4
  br label %120

120:                                              ; preds = %104
  %121 = load i32, ptr %17, align 4
  %122 = add i32 %121, 1
  store i32 %122, ptr %17, align 4
  br label %101, !llvm.loop !30

123:                                              ; preds = %101
  br label %124

124:                                              ; preds = %123
  %125 = load i32, ptr %16, align 4
  %126 = add i32 %125, 1
  store i32 %126, ptr %16, align 4
  br label %87, !llvm.loop !31

127:                                              ; preds = %87
  %128 = load i32, ptr %10, align 4
  store i32 %128, ptr %5, align 4
  store i32 1, ptr %21, align 4
  br label %129

129:                                              ; preds = %127, %38
  call void @llvm.lifetime.end.p0(i64 8, ptr %20) #7
  call void @llvm.lifetime.end.p0(i64 4, ptr %19) #7
  call void @llvm.lifetime.end.p0(i64 4, ptr %18) #7
  call void @llvm.lifetime.end.p0(i64 4, ptr %17) #7
  call void @llvm.lifetime.end.p0(i64 4, ptr %16) #7
  call void @llvm.lifetime.end.p0(i64 8, ptr %15) #7
  call void @llvm.lifetime.end.p0(i64 8, ptr %14) #7
  call void @llvm.lifetime.end.p0(i64 8, ptr %13) #7
  call void @llvm.lifetime.end.p0(i64 8, ptr %12) #7
  call void @llvm.lifetime.end.p0(i64 8, ptr %11) #7
  call void @llvm.lifetime.end.p0(i64 4, ptr %10) #7
  %130 = load i32, ptr %5, align 4
  ret i32 %130
}