; Function Attrs: null_pointer_is_valid sspstrong uwtable
define internal fastcc i32 @parse_SCtoVLxMappingTable(ptr noundef %0, ptr noundef %1, i32 %.0.val, ptr noundef readonly captures(none) %2) unnamed_addr #0 {
  %.not = icmp eq ptr %0, null
  br i1 %.not, label %.loopexit, label %4

4:                                                ; preds = %3
  %5 = getelementptr inbounds nuw i8, ptr %2, i64 3
  %6 = load i8, ptr %5, align 1
  switch i8 %6, label %7 [
    i8 1, label %.loopexit
    i8 18, label %.loopexit
  ]

7:                                                ; preds = %4
  %8 = getelementptr inbounds nuw i8, ptr %2, i64 1
  %9 = load i8, ptr %8, align 1
  %10 = icmp eq i8 %9, 3
  br i1 %10, label %11, label %15

11:                                               ; preds = %7
  %12 = add i32 %.0.val, -4
  %13 = tail call zeroext i8 @tvb_get_uint8(ptr noundef %1, i32 noundef %12)
  %14 = zext i8 %13 to i32
  br label %20

15:                                               ; preds = %7
  %16 = getelementptr inbounds nuw i8, ptr %2, i64 20
  %17 = load i32, ptr %16, align 4
  %18 = lshr i32 %17, 24
  %19 = and i32 %17, 255
  br label %20

20:                                               ; preds = %15, %11
  %SM_SC_VLx.sink = phi ptr [ @SM_SC_VLx, %15 ], [ @SA_SC_VLx, %11 ]
  %.043 = phi i32 [ %19, %15 ], [ %14, %11 ]
  %.042 = phi i32 [ %18, %15 ], [ 1, %11 ]
  %21 = getelementptr inbounds nuw i8, ptr %2, i64 16
  %22 = load i16, ptr %21, align 8
  %23 = zext i16 %22 to i32
  %24 = tail call ptr @val_to_str_const(i32 noundef %23, ptr noundef nonnull %SM_SC_VLx.sink, ptr noundef nonnull @.str.2350)
  %25 = load i32, ptr @hf_opa_SCtoVLxMappingTable, align 4
  %26 = shl nuw nsw i32 %.042, 5
  %27 = tail call ptr @proto_tree_add_item(ptr noundef nonnull %0, i32 noundef %25, ptr noundef %1, i32 noundef %.0.val, i32 noundef %26, i32 noundef 0)
  tail call void (ptr, ptr, ...) @proto_item_set_text(ptr noundef %27, ptr noundef nonnull @.str.2351, ptr noundef %24)
  %28 = load i32, ptr @ett_sctovlxmappingtable, align 4
  %29 = tail call ptr @proto_item_add_subtree(ptr noundef %27, i32 noundef %28)
  %30 = add nuw nsw i32 %.042, %.043
  %.not5 = icmp eq i32 %.042, 0
  br i1 %.not5, label %.loopexit, label %.lr.ph

.lr.ph:                                           ; preds = %20, %40
  %.0454 = phi i32 [ %41, %40 ], [ %.043, %20 ]
  %.0473 = phi i32 [ %38, %40 ], [ %.0.val, %20 ]
  %31 = load i32, ptr @ett_sctovlxmappingtable_block, align 4
  %32 = tail call ptr (ptr, ptr, i32, i32, i32, ptr, ptr, ...) @proto_tree_add_subtree_format(ptr noundef %29, ptr noundef %1, i32 noundef %.0473, i32 noundef 32, i32 noundef %31, ptr noundef null, ptr noundef nonnull @.str.2352, ptr noundef %24, i32 noundef %.0454)
  br label %33

33:                                               ; preds = %.lr.ph, %33
  %.0442 = phi i32 [ 0, %.lr.ph ], [ %39, %33 ]
  %.11 = phi i32 [ %.0473, %.lr.ph ], [ %38, %33 ]
  %34 = load i32, ptr @hf_opa_SCtoVLxMappingTable_SCtoVLx_HighBits, align 4
  %35 = tail call ptr @proto_tree_add_item(ptr noundef %32, i32 noundef %34, ptr noundef %1, i32 noundef %.11, i32 noundef 1, i32 noundef 0)
  tail call void (ptr, ptr, ...) @proto_item_prepend_text(ptr noundef %35, ptr noundef nonnull @.str.2329, i32 noundef %.0442)
  %36 = load i32, ptr @hf_opa_SCtoVLxMappingTable_SCtoVLx_LowBits, align 4
  %37 = tail call ptr @proto_tree_add_item(ptr noundef %32, i32 noundef %36, ptr noundef %1, i32 noundef %.11, i32 noundef 1, i32 noundef 0)
  tail call void (ptr, ptr, ...) @proto_item_prepend_text(ptr noundef %37, ptr noundef nonnull @.str.2331)
  %38 = add i32 %.11, 1
  %39 = add nuw nsw i32 %.0442, 1
  %exitcond.not = icmp eq i32 %39, 32
  br i1 %exitcond.not, label %40, label %33, !llvm.loop !39

40:                                               ; preds = %33
  %41 = add nuw nsw i32 %.0454, 1
  %42 = icmp samesign ult i32 %41, %30
  br i1 %42, label %.lr.ph, label %.loopexit, !llvm.loop !40

.loopexit:                                        ; preds = %40, %20, %3, %4, %4
  %.046 = phi i32 [ %.0.val, %4 ], [ %.0.val, %4 ], [ %.0.val, %3 ], [ %.0.val, %20 ], [ %38, %40 ]
  ret i32 %.046
}